Certificate:
    Data:
        Version: 3 (0x2)
        Serial Number: 13135752980835096626 (0xb64b91bd67f45832)
    Signature Algorithm: sha256WithRSAEncryption
        Issuer: CN=Monaca
        Validity
            Not Before: Nov 27 15:27:48 2014 GMT
            Not After : Nov 26 15:27:48 2017 GMT
        Subject: CN=monaca-debug-app
        Subject Public Key Info:
            Public Key Algorithm: rsaEncryption
                Public-Key: (2048 bit)
                Modulus:
                    00:e7:cb:32:e5:e4:d7:79:42:3a:c5:1f:06:36:78:
                    cd:63:10:25:64:28:f4:41:5f:39:97:16:18:61:56:
                    80:78:1a:22:11:13:76:7b:78:56:db:03:44:e6:77:
                    e4:7c:9b:38:d6:c6:7b:15:6c:1f:c9:4a:a1:f3:98:
                    7d:e5:49:1b:b5:31:08:9b:2c:43:36:52:94:6d:c1:
                    d0:9e:e2:ce:f8:43:41:5b:02:fe:88:46:ba:9d:a5:
                    bf:f2:4e:f2:db:ce:ab:be:d0:88:44:cb:43:7e:81:
                    d3:06:2b:e9:d8:fa:8e:0a:4f:de:a8:95:2b:00:3d:
                    eb:25:a7:f2:ae:0d:e0:7b:08:41:ca:32:ae:19:ca:
                    57:2c:58:04:34:d8:38:c9:81:84:7f:27:5c:84:cb:
                    f0:5e:8f:cc:6b:7b:1f:d0:49:f3:e2:a7:a5:47:2f:
                    fd:0c:e6:e6:56:1a:a8:3c:f5:67:37:63:be:bf:b6:
                    e4:cb:28:3e:64:63:13:bc:6b:75:c5:b0:d1:5d:e2:
                    69:08:bc:66:a0:0c:c5:6e:33:25:e0:9e:41:d2:3d:
                    29:3a:25:d8:8e:33:85:eb:18:55:c1:66:20:d6:c7:
                    1d:92:a5:32:4c:d1:42:2f:39:52:5f:4d:f6:02:11:
                    8f:4b:9b:35:85:50:67:ef:c2:13:1a:20:80:88:16:
                    c1:9d
                Exponent: 65537 (0x10001)
        X509v3 extensions:
            X509v3 Basic Constraints: 
                CA:FALSE
            Netscape Comment: 
                OpenSSL Generated Certificate
            X509v3 Subject Key Identifier: 
                13:AE:6A:51:92:31:31:1F:64:D4:A0:2B:D5:ED:8F:12:B6:2E:BE:53
            X509v3 Authority Key Identifier: 
                keyid:E1:C2:82:2D:04:9F:BC:50:9C:53:B3:61:5B:6D:6F:70:F6:CA:4F:01

            X509v3 Extended Key Usage: 
                Code Signing
    Signature Algorithm: sha256WithRSAEncryption
         34:c2:87:35:2f:62:38:c6:64:ab:d6:0a:0d:8d:1f:10:2b:1a:
         ea:17:67:c2:34:84:41:e7:e3:d0:e6:63:8b:6c:da:09:31:13:
         3d:c9:13:21:cb:5e:b4:66:be:b2:bc:db:4d:0a:b6:2d:56:55:
         0b:c5:4d:4e:90:d3:e9:bb:59:04:64:de:e2:5f:2b:9d:8e:48:
         de:97:89:90:01:ce:b8:8d:ef:1d:0f:67:c1:6c:d2:ea:0d:21:
         74:a8:f4:2b:bb:ee:33:e3:3a:b4:5a:1f:15:d7:8f:14:c6:33:
         12:24:3d:3e:72:f3:af:02:7d:5e:7f:23:7e:55:71:be:67:9d:
         05:48:21:5c:a2:04:59:62:09:d8:ee:2b:9a:b2:f9:09:92:f7:
         77:fb:a5:0b:cc:8b:64:0b:3c:e1:9c:8f:58:02:61:7f:01:95:
         01:e2:ff:c9:bb:5e:3f:60:b9:49:0d:f9:d8:af:ac:f8:77:c7:
         97:92:82:6d:4b:ff:27:c7:b7:74:47:b9:61:1d:79:d5:57:b5:
         39:80:7d:68:31:25:71:4f:e9:49:c7:3a:aa:32:82:b4:70:36:
         9b:ec:8d:a2:9d:30:5e:82:8a:69:4d:a2:f1:f6:5e:c9:77:ac:
         d8:91:b6:ce:ac:b7:86:9c:6e:30:12:cc:d9:a0:d7:85:dc:2b:
         f9:2c:d0:53
-----BEGIN CERTIFICATE-----
MIIDQTCCAimgAwIBAgIJALZLkb1n9FgyMA0GCSqGSIb3DQEBCwUAMBExDzANBgNV
BAMTBk1vbmFjYTAeFw0xNDExMjcxNTI3NDhaFw0xNzExMjYxNTI3NDhaMBsxGTAX
BgNVBAMTEG1vbmFjYS1kZWJ1Zy1hcHAwggEiMA0GCSqGSIb3DQEBAQUAA4IBDwAw
ggEKAoIBAQDnyzLl5Nd5QjrFHwY2eM1jECVkKPRBXzmXFhhhVoB4GiIRE3Z7eFbb
A0Tmd+R8mzjWxnsVbB/JSqHzmH3lSRu1MQibLEM2UpRtwdCe4s74Q0FbAv6IRrqd
pb/yTvLbzqu+0IhEy0N+gdMGK+nY+o4KT96olSsAPeslp/KuDeB7CEHKMq4Zylcs
WAQ02DjJgYR/J1yEy/Bej8xrex/QSfPip6VHL/0M5uZWGqg89Wc3Y76/tuTLKD5k
YxO8a3XFsNFd4mkIvGagDMVuMyXgnkHSPSk6JdiOM4XrGFXBZiDWxx2SpTJM0UIv
OVJfTfYCEY9LmzWFUGfvwhMaIICIFsGdAgMBAAGjgZEwgY4wCQYDVR0TBAIwADAs
BglghkgBhvhCAQ0EHxYdT3BlblNTTCBHZW5lcmF0ZWQgQ2VydGlmaWNhdGUwHQYD
VR0OBBYEFBOualGSMTEfZNSgK9XtjxK2Lr5TMB8GA1UdIwQYMBaAFOHCgi0En7xQ
nFOzYVttb3D2yk8BMBMGA1UdJQQMMAoGCCsGAQUFBwMDMA0GCSqGSIb3DQEBCwUA
A4IBAQA0woc1L2I4xmSr1goNjR8QKxrqF2fCNIRB5+PQ5mOLbNoJMRM9yRMhy160
Zr6yvNtNCrYtVlULxU1OkNPpu1kEZN7iXyudjkjel4mQAc64je8dD2fBbNLqDSF0
qPQru+4z4zq0Wh8V148UxjMSJD0+cvOvAn1efyN+VXG+Z50FSCFcogRZYgnY7iua
svkJkvd3+6ULzItkCzzhnI9YAmF/AZUB4v/Ju14/YLlJDfnYr6z4d8eXkoJtS/8n
x7d0R7lhHXnVV7U5gH1oMSVxT+lJxzqqMoK0cDab7I2inTBegoppTaLx9l7Jd6zY
kbbOrLeGnG4wEszZoNeF3Cv5LNBT
-----END CERTIFICATE-----
